target datalayout = "e-m:e-p270:32:32-p271:32:32-p272:64:64-i64:64-i128:128-f80:128-n8:16:32:64-S128"
target triple = "x86_64-pc-linux-gnu"

%"class.cv::Mat" = type { i32, i32, i32, i32, ptr, ptr, ptr, ptr, ptr, ptr, %"struct.cv::MatSize", %"struct.cv::MatStep" }
%"struct.cv::MatSize" = type { ptr }
%"struct.cv::MatStep" = type { ptr, [2 x i64] }
%"class.cv::Range" = type { i32, i32 }
%"class.cv::Matx" = type { [2 x float] }

; Function Attrs: inlinehint mustprogress nounwind uwtable
define linkonce_odr hidden void @_ZN2cv5RangeC2Eii(ptr noundef nonnull align 4 dereferenceable(8) %0, i32 noundef %1, i32 noundef %2) unnamed_addr #9 comdat align 2 {
  %4 = alloca ptr, align 8
  %5 = alloca i32, align 4
  %6 = alloca i32, align 4
  store ptr %0, ptr %4, align 8, !tbaa !193
  store i32 %1, ptr %5, align 4, !tbaa !8
  store i32 %2, ptr %6, align 4, !tbaa !8
  %7 = load ptr, ptr %4, align 8
  %8 = getelementptr inbounds nuw %"class.cv::Range", ptr %7, i32 0, i32 0
  %9 = load i32, ptr %5, align 4, !tbaa !8
  store i32 %9, ptr %8, align 4, !tbaa !195
  %10 = getelementptr inbounds nuw %"class.cv::Range", ptr %7, i32 0, i32 1
  %11 = load i32, ptr %6, align 4, !tbaa !8
  store i32 %11, ptr %10, align 4, !tbaa !197
  ret void
}

; Function Attrs: inlinehint mustprogress uwtable
define linkonce_odr hidden i64 @_ZN2cv5Range3allEv() #8 comdat align 2 {
  %1 = alloca %"class.cv::Range", align 4
  call void @_ZN2cv5RangeC2Eii(ptr noundef nonnull align 4 dereferenceable(8) %1, i32 noundef -2147483648, i32 noundef 2147483647)
  %2 = load i64, ptr %1, align 4
  ret i64 %2
}

; Function Attrs: inlinehint mustprogress nounwind uwtable
define linkonce_odr hidden noundef i64 @_ZNK2cv7MatStepcvmEv(ptr noundef nonnull align 8 dereferenceable(24) %0) #9 comdat align 2 {
  %2 = alloca ptr, align 8
  store ptr %0, ptr %2, align 8, !tbaa !107
  %3 = load ptr, ptr %2, align 8
  %4 = getelementptr inbounds nuw %"struct.cv::MatStep", ptr %3, i32 0, i32 1
  %5 = getelementptr inbounds [2 x i64], ptr %4, i64 0, i64 0
  %6 = load i64, ptr %5, align 8, !tbaa !33
  ret i64 %6
}

; Function Attrs: inlinehint mustprogress nounwind uwtable
define linkonce_odr hidden noundef nonnull align 4 dereferenceable(4) ptr @_ZN2cv3VecIfLi2EEixEi(ptr noundef nonnull align 4 dereferenceable(8) %0, i32 noundef %1) #9 comdat align 2 {
  %3 = alloca ptr, align 8
  %4 = alloca i32, align 4
  store ptr %0, ptr %3, align 8, !tbaa !90
  store i32 %1, ptr %4, align 4, !tbaa !8
  %5 = load ptr, ptr %3, align 8
  %6 = getelementptr inbounds nuw %"class.cv::Matx", ptr %5, i32 0, i32 0
  %7 = load i32, ptr %4, align 4, !tbaa !8
  %8 = sext i32 %7 to i64
  %9 = getelementptr inbounds [2 x float], ptr %6, i64 0, i64 %8
  ret ptr %9
}

; Function Attrs: inlinehint mustprogress uwtable
define linkonce_odr hidden void @_ZNK2cv3Mat8colRangeEii(ptr dead_on_unwind noalias writable sret(%"class.cv::Mat") align 8 %0, ptr noundef nonnull align 8 dereferenceable(96) %1, i32 noundef %2, i32 noundef %3) #8 comdat align 2 {
  %5 = alloca ptr, align 8
  %6 = alloca ptr, align 8
  %7 = alloca i32, align 4
  %8 = alloca i32, align 4
  %9 = alloca %"class.cv::Range", align 4
  %10 = alloca %"class.cv::Range", align 4
  store ptr %0, ptr %5, align 8
  store ptr %1, ptr %6, align 8, !tbaa !46
  store i32 %2, ptr %7, align 4, !tbaa !8
  store i32 %3, ptr %8, align 4, !tbaa !8
  %11 = load ptr, ptr %6, align 8
  call void @llvm.lifetime.start.p0(i64 8, ptr %9) #3
  %12 = call i64 @_ZN2cv5Range3allEv()
  store i64 %12, ptr %9, align 4
  call void @llvm.lifetime.start.p0(i64 8, ptr %10) #3
  %13 = load i32, ptr %7, align 4, !tbaa !8
  %14 = load i32, ptr %8, align 4, !tbaa !8
  call void @_ZN2cv5RangeC2Eii(ptr noundef nonnull align 4 dereferenceable(8) %10, i32 noundef %13, i32 noundef %14)
  call void @_ZN2cv3MatC1ERKS0_RKNS_5RangeES5_(ptr noundef nonnull align 8 dereferenceable(96) %0, ptr noundef nonnull align 8 dereferenceable(96) %11, ptr noundef nonnull align 4 dereferenceable(8) %9, ptr noundef nonnull align 4 dereferenceable(8) %10)
  call void @llvm.lifetime.end.p0(i64 8, ptr %10) #3
  call void @llvm.lifetime.end.p0(i64 8, ptr %9) #3
  ret void
}

; Function Attrs: mustprogress uwtable
define hidden void @_ZN2cv12ppf_match_3d14computeBboxStdENS_3MatERNS_3VecIfLi2EEES4_S4_(ptr noundef %0, ptr noundef nonnull align 4 dereferenceable(8) %1, ptr noundef nonnull align 4 dereferenceable(8) %2, ptr noundef nonnull align 4 dereferenceable(8) %3) #4 personality ptr @__gxx_personality_v0 {
  %5 = alloca ptr, align 8
  %6 = alloca ptr, align 8
  %7 = alloca ptr, align 8
  %8 = alloca ptr, align 8
  %9 = alloca %"class.cv::Mat", align 8
  %10 = alloca i32, align 4
  %11 = alloca ptr, align 8
  %12 = alloca ptr, align 8
  %13 = alloca i32, align 4
  %14 = alloca i32, align 4
  %15 = alloca ptr, align 8
  %16 = alloca float, align 4
  %17 = alloca float, align 4
  %18 = alloca float, align 4
  store ptr %0, ptr %5, align 8, !tbaa !46
  store ptr %1, ptr %6, align 8, !tbaa !90
  store ptr %2, ptr %7, align 8, !tbaa !90
  store ptr %3, ptr %8, align 8, !tbaa !90
  call void @llvm.lifetime.start.p0(i64 96, ptr %9) #3
  call void @_ZNK2cv3Mat8colRangeEii(ptr dead_on_unwind writable sret(%"class.cv::Mat") align 8 %9, ptr noundef nonnull align 8 dereferenceable(96) %0, i32 noundef 0, i32 noundef 3)
  call void @llvm.lifetime.start.p0(i64 4, ptr %10) #3
  %19 = getelementptr inbounds nuw %"class.cv::Mat", ptr %9, i32 0, i32 2
  %20 = load i32, ptr %19, align 8, !tbaa !57
  store i32 %20, ptr %10, align 4, !tbaa !8
  call void @llvm.lifetime.start.p0(i64 8, ptr %11) #3
  %21 = getelementptr inbounds nuw %"class.cv::Mat", ptr %9, i32 0, i32 4
  %22 = load ptr, ptr %21, align 8, !tbaa !48
  store ptr %22, ptr %11, align 8, !tbaa !12
  %23 = load ptr, ptr %11, align 8, !tbaa !12
  %24 = getelementptr inbounds float, ptr %23, i64 0
  %25 = load float, ptr %24, align 4, !tbaa !16
  %26 = load ptr, ptr %6, align 8, !tbaa !90
  %27 = invoke noundef nonnull align 4 dereferenceable(4) ptr @_ZN2cv3VecIfLi2EEixEi(ptr noundef nonnull align 4 dereferenceable(8) %26, i32 noundef 0)
          to label %28 unwind label %64

28:                                               ; preds = %4
  store float %25, ptr %27, align 4, !tbaa !16
  %29 = load ptr, ptr %11, align 8, !tbaa !12
  %30 = getelementptr inbounds float, ptr %29, i64 0
  %31 = load float, ptr %30, align 4, !tbaa !16
  %32 = load ptr, ptr %6, align 8, !tbaa !90
  %33 = invoke noundef nonnull align 4 dereferenceable(4) ptr @_ZN2cv3VecIfLi2EEixEi(ptr noundef nonnull align 4 dereferenceable(8) %32, i32 noundef 1)
          to label %34 unwind label %64

34:                                               ; preds = %28
  store float %31, ptr %33, align 4, !tbaa !16
  %35 = load ptr, ptr %11, align 8, !tbaa !12
  %36 = getelementptr inbounds float, ptr %35, i64 1
  %37 = load float, ptr %36, align 4, !tbaa !16
  %38 = load ptr, ptr %7, align 8, !tbaa !90
  %39 = invoke noundef nonnull align 4 dereferenceable(4) ptr @_ZN2cv3VecIfLi2EEixEi(ptr noundef nonnull align 4 dereferenceable(8) %38, i32 noundef 0)
          to label %40 unwind label %64

40:                                               ; preds = %34
  store float %37, ptr %39, align 4, !tbaa !16
  %41 = load ptr, ptr %11, align 8, !tbaa !12
  %42 = getelementptr inbounds float, ptr %41, i64 1
  %43 = load float, ptr %42, align 4, !tbaa !16
  %44 = load ptr, ptr %7, align 8, !tbaa !90
  %45 = invoke noundef nonnull align 4 dereferenceable(4) ptr @_ZN2cv3VecIfLi2EEixEi(ptr noundef nonnull align 4 dereferenceable(8) %44, i32 noundef 1)
          to label %46 unwind label %64

46:                                               ; preds = %40
  store float %43, ptr %45, align 4, !tbaa !16
  %47 = load ptr, ptr %11, align 8, !tbaa !12
  %48 = getelementptr inbounds float, ptr %47, i64 2
  %49 = load float, ptr %48, align 4, !tbaa !16
  %50 = load ptr, ptr %8, align 8, !tbaa !90
  %51 = invoke noundef nonnull align 4 dereferenceable(4) ptr @_ZN2cv3VecIfLi2EEixEi(ptr noundef nonnull align 4 dereferenceable(8) %50, i32 noundef 0)
          to label %52 unwind label %64

52:                                               ; preds = %46
  store float %49, ptr %51, align 4, !tbaa !16
  %53 = load ptr, ptr %11, align 8, !tbaa !12
  %54 = getelementptr inbounds float, ptr %53, i64 2
  %55 = load float, ptr %54, align 4, !tbaa !16
  %56 = load ptr, ptr %8, align 8, !tbaa !90
  %57 = invoke noundef nonnull align 4 dereferenceable(4) ptr @_ZN2cv3VecIfLi2EEixEi(ptr noundef nonnull align 4 dereferenceable(8) %56, i32 noundef 1)
          to label %58 unwind label %64

58:                                               ; preds = %52
  store float %55, ptr %57, align 4, !tbaa !16
  call void @llvm.lifetime.start.p0(i64 4, ptr %14) #3
  store i32 0, ptr %14, align 4, !tbaa !8
  br label %59

59:                                               ; preds = %167, %58
  %60 = load i32, ptr %14, align 4, !tbaa !8
  %61 = load i32, ptr %10, align 4, !tbaa !8
  %62 = icmp slt i32 %60, %61
  br i1 %62, label %68, label %63

63:                                               ; preds = %59
  call void @llvm.lifetime.end.p0(i64 4, ptr %14) #3
  br label %171

64:                                               ; preds = %52, %46, %40, %34, %28, %4
  %65 = landingpad { ptr, i32 }
          cleanup
  %66 = extractvalue { ptr, i32 } %65, 0
  store ptr %66, ptr %12, align 8
  %67 = extractvalue { ptr, i32 } %65, 1
  store i32 %67, ptr %13, align 4
  br label %172

68:                                               ; preds = %59
  call void @llvm.lifetime.start.p0(i64 8, ptr %15) #3
  %69 = getelementptr inbounds nuw %"class.cv::Mat", ptr %9, i32 0, i32 4
  %70 = load ptr, ptr %69, align 8, !tbaa !48
  %71 = load i32, ptr %14, align 4, !tbaa !8
  %72 = sext i32 %71 to i64
  %73 = getelementptr inbounds nuw %"class.cv::Mat", ptr %9, i32 0, i32 11
  %74 = invoke noundef i64 @_ZNK2cv7MatStepcvmEv(ptr noundef nonnull align 8 dereferenceable(24) %73)
          to label %75 unwind label %98

75:                                               ; preds = %68
  %76 = mul i64 %72, %74
  %77 = getelementptr inbounds nuw i8, ptr %70, i64 %76
  store ptr %77, ptr %15, align 8, !tbaa !12
  call void @llvm.lifetime.start.p0(i64 4, ptr %16) #3
  %78 = load ptr, ptr %15, align 8, !tbaa !12
  %79 = getelementptr inbounds float, ptr %78, i64 0
  %80 = load float, ptr %79, align 4, !tbaa !16
  store float %80, ptr %16, align 4, !tbaa !16
  call void @llvm.lifetime.start.p0(i64 4, ptr %17) #3
  %81 = load ptr, ptr %15, align 8, !tbaa !12
  %82 = getelementptr inbounds float, ptr %81, i64 1
  %83 = load float, ptr %82, align 4, !tbaa !16
  store float %83, ptr %17, align 4, !tbaa !16
  call void @llvm.lifetime.start.p0(i64 4, ptr %18) #3
  %84 = load ptr, ptr %15, align 8, !tbaa !12
  %85 = getelementptr inbounds float, ptr %84, i64 2
  %86 = load float, ptr %85, align 4, !tbaa !16
  store float %86, ptr %18, align 4, !tbaa !16
  %87 = load float, ptr %16, align 4, !tbaa !16
  %88 = load ptr, ptr %6, align 8, !tbaa !90
  %89 = invoke noundef nonnull align 4 dereferenceable(4) ptr @_ZN2cv3VecIfLi2EEixEi(ptr noundef nonnull align 4 dereferenceable(8) %88, i32 noundef 0)
          to label %90 unwind label %102

90:                                               ; preds = %75
  %91 = load float, ptr %89, align 4, !tbaa !16
  %92 = fcmp olt float %87, %91
  br i1 %92, label %93, label %106

93:                                               ; preds = %90
  %94 = load float, ptr %16, align 4, !tbaa !16
  %95 = load ptr, ptr %6, align 8, !tbaa !90
  %96 = invoke noundef nonnull align 4 dereferenceable(4) ptr @_ZN2cv3VecIfLi2EEixEi(ptr noundef nonnull align 4 dereferenceable(8) %95, i32 noundef 0)
          to label %97 unwind label %102

97:                                               ; preds = %93
  store float %94, ptr %96, align 4, !tbaa !16
  br label %106

98:                                               ; preds = %68
  %99 = landingpad { ptr, i32 }
          cleanup
  %100 = extractvalue { ptr, i32 } %99, 0
  store ptr %100, ptr %12, align 8
  %101 = extractvalue { ptr, i32 } %99, 1
  store i32 %101, ptr %13, align 4
  br label %170

102:                                              ; preds = %161, %154, %149, %142, %137, %130, %125, %118, %113, %106, %93, %75
  %103 = landingpad { ptr, i32 }
          cleanup
  %104 = extractvalue { ptr, i32 } %103, 0
  store ptr %104, ptr %12, align 8
  %105 = extractvalue { ptr, i32 } %103, 1
  store i32 %105, ptr %13, align 4
  call void @llvm.lifetime.end.p0(i64 4, ptr %18) #3
  call void @llvm.lifetime.end.p0(i64 4, ptr %17) #3
  call void @llvm.lifetime.end.p0(i64 4, ptr %16) #3
  br label %170

106:                                              ; preds = %97, %90
  %107 = load float, ptr %16, align 4, !tbaa !16
  %108 = load ptr, ptr %6, align 8, !tbaa !90
  %109 = invoke noundef nonnull align 4 dereferenceable(4) ptr @_ZN2cv3VecIfLi2EEixEi(ptr noundef nonnull align 4 dereferenceable(8) %108, i32 noundef 1)
          to label %110 unwind label %102

110:                                              ; preds = %106
  %111 = load float, ptr %109, align 4, !tbaa !16
  %112 = fcmp ogt float %107, %111
  br i1 %112, label %113, label %118

113:                                              ; preds = %110
  %114 = load float, ptr %16, align 4, !tbaa !16
  %115 = load ptr, ptr %6, align 8, !tbaa !90
  %116 = invoke noundef nonnull align 4 dereferenceable(4) ptr @_ZN2cv3VecIfLi2EEixEi(ptr noundef nonnull align 4 dereferenceable(8) %115, i32 noundef 1)
          to label %117 unwind label %102

117:                                              ; preds = %113
  store float %114, ptr %116, align 4, !tbaa !16
  br label %118

118:                                              ; preds = %117, %110
  %119 = load float, ptr %17, align 4, !tbaa !16
  %120 = load ptr, ptr %7, align 8, !tbaa !90
  %121 = invoke noundef nonnull align 4 dereferenceable(4) ptr @_ZN2cv3VecIfLi2EEixEi(ptr noundef nonnull align 4 dereferenceable(8) %120, i32 noundef 0)
          to label %122 unwind label %102

122:                                              ; preds = %118
  %123 = load float, ptr %121, align 4, !tbaa !16
  %124 = fcmp olt float %119, %123
  br i1 %124, label %125, label %130

125:                                              ; preds = %122
  %126 = load float, ptr %17, align 4, !tbaa !16
  %127 = load ptr, ptr %7, align 8, !tbaa !90
  %128 = invoke noundef nonnull align 4 dereferenceable(4) ptr @_ZN2cv3VecIfLi2EEixEi(ptr noundef nonnull align 4 dereferenceable(8) %127, i32 noundef 0)
          to label %129 unwind label %102

129:                                              ; preds = %125
  store float %126, ptr %128, align 4, !tbaa !16
  br label %130

130:                                              ; preds = %129, %122
  %131 = load float, ptr %17, align 4, !tbaa !16
  %132 = load ptr, ptr %7, align 8, !tbaa !90
  %133 = invoke noundef nonnull align 4 dereferenceable(4) ptr @_ZN2cv3VecIfLi2EEixEi(ptr noundef nonnull align 4 dereferenceable(8) %132, i32 noundef 1)
          to label %134 unwind label %102

134:                                              ; preds = %130
  %135 = load float, ptr %133, align 4, !tbaa !16
  %136 = fcmp ogt float %131, %135
  br i1 %136, label %137, label %142

137:                                              ; preds = %134
  %138 = load float, ptr %17, align 4, !tbaa !16
  %139 = load ptr, ptr %7, align 8, !tbaa !90
  %140 = invoke noundef nonnull align 4 dereferenceable(4) ptr @_ZN2cv3VecIfLi2EEixEi(ptr noundef nonnull align 4 dereferenceable(8) %139, i32 noundef 1)
          to label %141 unwind label %102

141:                                              ; preds = %137
  store float %138, ptr %140, align 4, !tbaa !16
  br label %142

142:                                              ; preds = %141, %134
  %143 = load float, ptr %18, align 4, !tbaa !16
  %144 = load ptr, ptr %8, align 8, !tbaa !90
  %145 = invoke noundef nonnull align 4 dereferenceable(4) ptr @_ZN2cv3VecIfLi2EEixEi(ptr noundef nonnull align 4 dereferenceable(8) %144, i32 noundef 0)
          to label %146 unwind label %102

146:                                              ; preds = %142
  %147 = load float, ptr %145, align 4, !tbaa !16
  %148 = fcmp olt float %143, %147
  br i1 %148, label %149, label %154

149:                                              ; preds = %146
  %150 = load float, ptr %18, align 4, !tbaa !16
  %151 = load ptr, ptr %8, align 8, !tbaa !90
  %152 = invoke noundef nonnull align 4 dereferenceable(4) ptr @_ZN2cv3VecIfLi2EEixEi(ptr noundef nonnull align 4 dereferenceable(8) %151, i32 noundef 0)
          to label %153 unwind label %102

153:                                              ; preds = %149
  store float %150, ptr %152, align 4, !tbaa !16
  br label %154

154:                                              ; preds = %153, %146
  %155 = load float, ptr %18, align 4, !tbaa !16
  %156 = load ptr, ptr %8, align 8, !tbaa !90
  %157 = invoke noundef nonnull align 4 dereferenceable(4) ptr @_ZN2cv3VecIfLi2EEixEi(ptr noundef nonnull align 4 dereferenceable(8) %156, i32 noundef 1)
          to label %158 unwind label %102

158:                                              ; preds = %154
  %159 = load float, ptr %157, align 4, !tbaa !16
  %160 = fcmp ogt float %155, %159
  br i1 %160, label %161, label %166

161:                                              ; preds = %158
  %162 = load float, ptr %18, align 4, !tbaa !16
  %163 = load ptr, ptr %8, align 8, !tbaa !90
  %164 = invoke noundef nonnull align 4 dereferenceable(4) ptr @_ZN2cv3VecIfLi2EEixEi(ptr noundef nonnull align 4 dereferenceable(8) %163, i32 noundef 1)
          to label %165 unwind label %102

165:                                              ; preds = %161
  store float %162, ptr %164, align 4, !tbaa !16
  br label %166

166:                                              ; preds = %165, %158
  call void @llvm.lifetime.end.p0(i64 4, ptr %18) #3
  call void @llvm.lifetime.end.p0(i64 4, ptr %17) #3
  call void @llvm.lifetime.end.p0(i64 4, ptr %16) #3
  call void @llvm.lifetime.end.p0(i64 8, ptr %15) #3
  br label %167

167:                                              ; preds = %166
  %168 = load i32, ptr %14, align 4, !tbaa !8
  %169 = add nsw i32 %168, 1
  store i32 %169, ptr %14, align 4, !tbaa !8
  br label %59, !llvm.loop !106

170:                                              ; preds = %102, %98
  call void @llvm.lifetime.end.p0(i64 8, ptr %15) #3
  call void @llvm.lifetime.end.p0(i64 4, ptr %14) #3
  br label %172

171:                                              ; preds = %63
  call void @llvm.lifetime.end.p0(i64 8, ptr %11) #3
  call void @llvm.lifetime.end.p0(i64 4, ptr %10) #3
  call void @_ZN2cv3MatD1Ev(ptr noundef nonnull align 8 dereferenceable(96) %9) #3
  call void @llvm.lifetime.end.p0(i64 96, ptr %9) #3
  ret void

172:                                              ; preds = %170, %64
  call void @llvm.lifetime.end.p0(i64 8, ptr %11) #3
  call void @llvm.lifetime.end.p0(i64 4, ptr %10) #3
  call void @_ZN2cv3MatD1Ev(ptr noundef nonnull align 8 dereferenceable(96) %9) #3
  call void @llvm.lifetime.end.p0(i64 96, ptr %9) #3
  br label %173

173:                                              ; preds = %172
  %174 = load ptr, ptr %12, align 8
  %175 = load i32, ptr %13, align 4
  %176 = insertvalue { ptr, i32 } poison, ptr %174, 0
  %177 = insertvalue { ptr, i32 } %176, i32 %175, 1
  resume { ptr, i32 } %177
}