; Function Attrs: mustprogress uwtable
define hidden void @_ZN2cv12ppf_match_3d14computeBboxStdENS_3MatERNS_3VecIfLi2EEES4_S4_(ptr noundef nonnull %0, ptr noundef nonnull align 4 captures(none) dereferenceable(8) initializes((0, 8)) %1, ptr noundef nonnull align 4 captures(none) dereferenceable(8) initializes((0, 8)) %2, ptr noundef nonnull align 4 captures(none) dereferenceable(8) initializes((0, 8)) %3) local_unnamed_addr #3 personality ptr @__gxx_personality_v0 {
  %5 = alloca %"class.cv::Range", align 8
  %6 = alloca %"class.cv::Range", align 4
  %7 = alloca %"class.cv::Mat", align 8
  call void @llvm.lifetime.start.p0(i64 96, ptr nonnull %7) #36
  call void @llvm.lifetime.start.p0(i64 8, ptr nonnull %5) #36, !noalias !170
  store i64 9223372034707292160, ptr %5, align 8, !noalias !170
  call void @llvm.lifetime.start.p0(i64 8, ptr nonnull %6) #36, !noalias !170
  store i32 0, ptr %6, align 4, !tbaa !95, !noalias !170
  %8 = getelementptr inbounds nuw i8, ptr %6, i64 4
  store i32 3, ptr %8, align 4, !tbaa !97, !noalias !170
  call void @_ZN2cv3MatC1ERKS0_RKNS_5RangeES5_(ptr noundef nonnull align 8 dereferenceable(96) %7, ptr noundef nonnull align 8 dereferenceable(96) %0, ptr noundef nonnull align 4 dereferenceable(8) %5, ptr noundef nonnull align 4 dereferenceable(8) %6)
  call void @llvm.lifetime.end.p0(i64 8, ptr nonnull %6) #36, !noalias !170
  call void @llvm.lifetime.end.p0(i64 8, ptr nonnull %5) #36, !noalias !170
  %9 = getelementptr inbounds nuw i8, ptr %7, i64 8
  %10 = load i32, ptr %9, align 8, !tbaa !87
  %11 = getelementptr inbounds nuw i8, ptr %7, i64 16
  %12 = load ptr, ptr %11, align 8, !tbaa !72
  %13 = load float, ptr %12, align 4, !tbaa !85
  store float %13, ptr %1, align 4, !tbaa !85
  %14 = getelementptr inbounds nuw i8, ptr %1, i64 4
  store float %13, ptr %14, align 4, !tbaa !85
  %15 = getelementptr inbounds nuw i8, ptr %12, i64 4
  %16 = load float, ptr %15, align 4, !tbaa !85
  store float %16, ptr %2, align 4, !tbaa !85
  %17 = getelementptr inbounds nuw i8, ptr %2, i64 4
  store float %16, ptr %17, align 4, !tbaa !85
  %18 = getelementptr inbounds nuw i8, ptr %12, i64 8
  %19 = load float, ptr %18, align 4, !tbaa !85
  store float %19, ptr %3, align 4, !tbaa !85
  %20 = getelementptr inbounds nuw i8, ptr %3, i64 4
  store float %19, ptr %20, align 4, !tbaa !85
  %21 = icmp sgt i32 %10, 0
  br i1 %21, label %.lr.ph, label %._crit_edge

.lr.ph:                                           ; preds = %4
  %22 = getelementptr inbounds nuw i8, ptr %7, i64 80
  %23 = load i64, ptr %22, align 8, !tbaa !27
  %wide.trip.count = zext nneg i32 %10 to i64
  br label %24

._crit_edge:                                      ; preds = %55, %4
  call void @_ZN2cv3MatD1Ev(ptr noundef nonnull align 8 dereferenceable(96) %7) #36
  call void @llvm.lifetime.end.p0(i64 96, ptr nonnull %7) #36
  ret void

24:                                               ; preds = %.lr.ph, %55
  %indvars.iv = phi i64 [ 0, %.lr.ph ], [ %indvars.iv.next, %55 ]
  %25 = mul i64 %23, %indvars.iv
  %26 = getelementptr inbounds nuw i8, ptr %12, i64 %25
  %27 = load float, ptr %26, align 4, !tbaa !85
  %28 = getelementptr inbounds nuw i8, ptr %26, i64 4
  %29 = load float, ptr %28, align 4, !tbaa !85
  %30 = getelementptr inbounds nuw i8, ptr %26, i64 8
  %31 = load float, ptr %30, align 4, !tbaa !85
  %32 = load float, ptr %1, align 4, !tbaa !85
  %33 = fcmp olt float %27, %32
  br i1 %33, label %34, label %35

34:                                               ; preds = %24
  store float %27, ptr %1, align 4, !tbaa !85
  br label %35

35:                                               ; preds = %34, %24
  %36 = load float, ptr %14, align 4, !tbaa !85
  %37 = fcmp ogt float %27, %36
  br i1 %37, label %38, label %39

38:                                               ; preds = %35
  store float %27, ptr %14, align 4, !tbaa !85
  br label %39

39:                                               ; preds = %38, %35
  %40 = load float, ptr %2, align 4, !tbaa !85
  %41 = fcmp olt float %29, %40
  br i1 %41, label %42, label %43

42:                                               ; preds = %39
  store float %29, ptr %2, align 4, !tbaa !85
  br label %43

43:                                               ; preds = %42, %39
  %44 = load float, ptr %17, align 4, !tbaa !85
  %45 = fcmp ogt float %29, %44
  br i1 %45, label %46, label %47

46:                                               ; preds = %43
  store float %29, ptr %17, align 4, !tbaa !85
  br label %47

47:                                               ; preds = %46, %43
  %48 = load float, ptr %3, align 4, !tbaa !85
  %49 = fcmp olt float %31, %48
  br i1 %49, label %50, label %51

50:                                               ; preds = %47
  store float %31, ptr %3, align 4, !tbaa !85
  br label %51

51:                                               ; preds = %50, %47
  %52 = load float, ptr %20, align 4, !tbaa !85
  %53 = fcmp ogt float %31, %52
  br i1 %53, label %54, label %55

54:                                               ; preds = %51
  store float %31, ptr %20, align 4, !tbaa !85
  br label %55

55:                                               ; preds = %54, %51
  %indvars.iv.next = add nuw nsw i64 %indvars.iv, 1
  %exitcond.not = icmp eq i64 %indvars.iv.next, %wide.trip.count
  br i1 %exitcond.not, label %._crit_edge, label %24, !llvm.loop !173
}